target datalayout = "e-m:e-p270:32:32-p271:32:32-p272:64:64-i64:64-i128:128-f80:128-n8:16:32:64-S128"
target triple = "x86_64-pc-linux-gnu"

%struct.GenerationContext = type { %struct.MemoryContextData, i32, i32, i32, i32, ptr, ptr, %struct.dlist_head }
%struct.MemoryContextData = type { i32, i8, i8, i64, ptr, ptr, ptr, ptr, ptr, ptr, ptr, ptr }
%struct.dlist_head = type { %struct.dlist_node }
%struct.dlist_node = type { ptr, ptr }
%struct.GenerationBlock = type { %struct.dlist_node, ptr, i64, i32, i32, ptr, ptr }
%struct.dlist_mutable_iter = type { ptr, ptr, ptr }

; Function Attrs: inlinehint nounwind uwtable
define internal void @dlist_delete(ptr noundef %0) #5 {
  %2 = alloca ptr, align 8
  store ptr %0, ptr %2, align 8
  %3 = load ptr, ptr %2, align 8
  %4 = getelementptr inbounds nuw %struct.dlist_node, ptr %3, i32 0, i32 1
  %5 = load ptr, ptr %4, align 8
  %6 = load ptr, ptr %2, align 8
  %7 = getelementptr inbounds nuw %struct.dlist_node, ptr %6, i32 0, i32 0
  %8 = load ptr, ptr %7, align 8
  %9 = getelementptr inbounds nuw %struct.dlist_node, ptr %8, i32 0, i32 1
  store ptr %5, ptr %9, align 8
  %10 = load ptr, ptr %2, align 8
  %11 = getelementptr inbounds nuw %struct.dlist_node, ptr %10, i32 0, i32 0
  %12 = load ptr, ptr %11, align 8
  %13 = load ptr, ptr %2, align 8
  %14 = getelementptr inbounds nuw %struct.dlist_node, ptr %13, i32 0, i32 1
  %15 = load ptr, ptr %14, align 8
  %16 = getelementptr inbounds nuw %struct.dlist_node, ptr %15, i32 0, i32 0
  store ptr %12, ptr %16, align 8
  ret void
}

; Function Attrs: inlinehint nounwind uwtable
define internal void @GenerationBlockFree(ptr noundef %0, ptr noundef %1) #5 {
  %3 = alloca ptr, align 8
  %4 = alloca ptr, align 8
  store ptr %0, ptr %3, align 8
  store ptr %1, ptr %4, align 8
  %5 = load ptr, ptr %4, align 8
  %6 = getelementptr inbounds nuw %struct.GenerationBlock, ptr %5, i32 0, i32 0
  call void @dlist_delete(ptr noundef %6)
  %7 = load ptr, ptr %4, align 8
  %8 = getelementptr inbounds nuw %struct.GenerationBlock, ptr %7, i32 0, i32 2
  %9 = load i64, ptr %8, align 8
  %10 = load ptr, ptr %3, align 8
  %11 = getelementptr inbounds nuw %struct.MemoryContextData, ptr %10, i32 0, i32 3
  %12 = load i64, ptr %11, align 8
  %13 = sub i64 %12, %9
  store i64 %13, ptr %11, align 8
  %14 = load ptr, ptr %4, align 8
  call void @free(ptr noundef %14) #12
  ret void
}

; Function Attrs: inlinehint nounwind uwtable
define internal void @GenerationBlockMarkEmpty(ptr noundef %0) #5 {
  %2 = alloca ptr, align 8
  store ptr %0, ptr %2, align 8
  br label %3

3:                                                ; preds = %1
  br label %4

4:                                                ; preds = %3
  %5 = load ptr, ptr %2, align 8
  %6 = getelementptr inbounds nuw %struct.GenerationBlock, ptr %5, i32 0, i32 3
  store i32 0, ptr %6, align 8
  %7 = load ptr, ptr %2, align 8
  %8 = getelementptr inbounds nuw %struct.GenerationBlock, ptr %7, i32 0, i32 4
  store i32 0, ptr %8, align 4
  %9 = load ptr, ptr %2, align 8
  %10 = getelementptr inbounds nuw i8, ptr %9, i64 56
  %11 = load ptr, ptr %2, align 8
  %12 = getelementptr inbounds nuw %struct.GenerationBlock, ptr %11, i32 0, i32 5
  store ptr %10, ptr %12, align 8
  ret void
}

; Function Attrs: nounwind uwtable
define dso_local void @GenerationReset(ptr noundef %0) #0 {
  %2 = alloca ptr, align 8
  %3 = alloca ptr, align 8
  %4 = alloca %struct.dlist_mutable_iter, align 8
  %5 = alloca i32, align 4
  %6 = alloca i32, align 4
  %7 = alloca ptr, align 8
  %8 = alloca i32, align 4
  %9 = alloca i32, align 4
  store ptr %0, ptr %2, align 8
  call void @llvm.lifetime.start.p0(i64 8, ptr %3) #12
  %10 = load ptr, ptr %2, align 8
  store ptr %10, ptr %3, align 8
  call void @llvm.lifetime.start.p0(i64 24, ptr %4) #12
  %11 = load ptr, ptr %3, align 8
  %12 = getelementptr inbounds nuw %struct.GenerationContext, ptr %11, i32 0, i32 6
  store ptr null, ptr %12, align 8
  br label %13

13:                                               ; preds = %1
  br label %14

14:                                               ; preds = %13
  br label %15

15:                                               ; preds = %14
  store i32 1, ptr %5, align 4
  br label %16

16:                                               ; preds = %15
  br label %17

17:                                               ; preds = %16
  br label %18

18:                                               ; preds = %17
  store i32 1, ptr %6, align 4
  %19 = load ptr, ptr %3, align 8
  %20 = getelementptr inbounds nuw %struct.GenerationContext, ptr %19, i32 0, i32 7
  %21 = getelementptr inbounds nuw %struct.dlist_head, ptr %20, i32 0, i32 0
  %22 = getelementptr inbounds nuw %struct.dlist_mutable_iter, ptr %4, i32 0, i32 2
  store ptr %21, ptr %22, align 8
  %23 = getelementptr inbounds nuw %struct.dlist_mutable_iter, ptr %4, i32 0, i32 2
  %24 = load ptr, ptr %23, align 8
  %25 = getelementptr inbounds nuw %struct.dlist_node, ptr %24, i32 0, i32 1
  %26 = load ptr, ptr %25, align 8
  %27 = icmp ne ptr %26, null
  br i1 %27, label %28, label %33

28:                                               ; preds = %18
  %29 = getelementptr inbounds nuw %struct.dlist_mutable_iter, ptr %4, i32 0, i32 2
  %30 = load ptr, ptr %29, align 8
  %31 = getelementptr inbounds nuw %struct.dlist_node, ptr %30, i32 0, i32 1
  %32 = load ptr, ptr %31, align 8
  br label %36

33:                                               ; preds = %18
  %34 = getelementptr inbounds nuw %struct.dlist_mutable_iter, ptr %4, i32 0, i32 2
  %35 = load ptr, ptr %34, align 8
  br label %36

36:                                               ; preds = %33, %28
  %37 = phi ptr [ %32, %28 ], [ %35, %33 ]
  %38 = getelementptr inbounds nuw %struct.dlist_mutable_iter, ptr %4, i32 0, i32 0
  store ptr %37, ptr %38, align 8
  %39 = getelementptr inbounds nuw %struct.dlist_mutable_iter, ptr %4, i32 0, i32 0
  %40 = load ptr, ptr %39, align 8
  %41 = getelementptr inbounds nuw %struct.dlist_node, ptr %40, i32 0, i32 1
  %42 = load ptr, ptr %41, align 8
  %43 = getelementptr inbounds nuw %struct.dlist_mutable_iter, ptr %4, i32 0, i32 1
  store ptr %42, ptr %43, align 8
  br label %44

44:                                               ; preds = %70, %36
  %45 = getelementptr inbounds nuw %struct.dlist_mutable_iter, ptr %4, i32 0, i32 0
  %46 = load ptr, ptr %45, align 8
  %47 = getelementptr inbounds nuw %struct.dlist_mutable_iter, ptr %4, i32 0, i32 2
  %48 = load ptr, ptr %47, align 8
  %49 = icmp ne ptr %46, %48
  br i1 %49, label %50, label %79

50:                                               ; preds = %44
  call void @llvm.lifetime.start.p0(i64 8, ptr %7) #12
  br label %51

51:                                               ; preds = %50
  br label %52

52:                                               ; preds = %51
  br label %53

53:                                               ; preds = %52
  store i32 1, ptr %8, align 4
  br label %54

54:                                               ; preds = %53
  br label %55

55:                                               ; preds = %54
  br label %56

56:                                               ; preds = %55
  store i32 1, ptr %9, align 4
  %57 = getelementptr inbounds nuw %struct.dlist_mutable_iter, ptr %4, i32 0, i32 0
  %58 = load ptr, ptr %57, align 8
  %59 = getelementptr inbounds i8, ptr %58, i64 0
  store ptr %59, ptr %7, align 8
  %60 = load ptr, ptr %7, align 8
  %61 = load ptr, ptr %3, align 8
  %62 = getelementptr inbounds nuw i8, ptr %61, i64 128
  %63 = icmp eq ptr %60, %62
  br i1 %63, label %64, label %66

64:                                               ; preds = %56
  %65 = load ptr, ptr %7, align 8
  call void @GenerationBlockMarkEmpty(ptr noundef %65)
  br label %69

66:                                               ; preds = %56
  %67 = load ptr, ptr %3, align 8
  %68 = load ptr, ptr %7, align 8
  call void @GenerationBlockFree(ptr noundef %67, ptr noundef %68)
  br label %69

69:                                               ; preds = %66, %64
  call void @llvm.lifetime.end.p0(i64 8, ptr %7) #12
  br label %70

70:                                               ; preds = %69
  %71 = getelementptr inbounds nuw %struct.dlist_mutable_iter, ptr %4, i32 0, i32 1
  %72 = load ptr, ptr %71, align 8
  %73 = getelementptr inbounds nuw %struct.dlist_mutable_iter, ptr %4, i32 0, i32 0
  store ptr %72, ptr %73, align 8
  %74 = getelementptr inbounds nuw %struct.dlist_mutable_iter, ptr %4, i32 0, i32 0
  %75 = load ptr, ptr %74, align 8
  %76 = getelementptr inbounds nuw %struct.dlist_node, ptr %75, i32 0, i32 1
  %77 = load ptr, ptr %76, align 8
  %78 = getelementptr inbounds nuw %struct.dlist_mutable_iter, ptr %4, i32 0, i32 1
  store ptr %77, ptr %78, align 8
  br label %44, !llvm.loop !6

79:                                               ; preds = %44
  %80 = load ptr, ptr %3, align 8
  %81 = getelementptr inbounds nuw i8, ptr %80, i64 128
  %82 = load ptr, ptr %3, align 8
  %83 = getelementptr inbounds nuw %struct.GenerationContext, ptr %82, i32 0, i32 5
  store ptr %81, ptr %83, align 8
  %84 = load ptr, ptr %3, align 8
  %85 = getelementptr inbounds nuw %struct.GenerationContext, ptr %84, i32 0, i32 1
  %86 = load i32, ptr %85, align 8
  %87 = load ptr, ptr %3, align 8
  %88 = getelementptr inbounds nuw %struct.GenerationContext, ptr %87, i32 0, i32 3
  store i32 %86, ptr %88, align 8
  call void @llvm.lifetime.end.p0(i64 24, ptr %4) #12
  call void @llvm.lifetime.end.p0(i64 8, ptr %3) #12
  ret void
}