; Function Attrs: nounwind uwtable
define dso_local void @GenerationReset(ptr noundef initializes((104, 112)) %0) local_unnamed_addr #0 {
  %2 = getelementptr inbounds nuw i8, ptr %0, i64 104
  store ptr null, ptr %2, align 8
  %3 = getelementptr inbounds nuw i8, ptr %0, i64 112
  %4 = getelementptr inbounds nuw i8, ptr %0, i64 120
  %5 = load ptr, ptr %4, align 8
  %.not = icmp eq ptr %5, null
  %.not182124 = icmp eq ptr %5, %3
  %.not1821 = select i1 %.not, i1 true, i1 %.not182124
  br i1 %.not1821, label %._crit_edge, label %.lr.ph

.lr.ph:                                           ; preds = %1
  %6 = getelementptr inbounds nuw i8, ptr %0, i64 128
  %7 = getelementptr inbounds nuw i8, ptr %0, i64 8
  br label %8

8:                                                ; preds = %.lr.ph, %23
  %.sroa.0.022 = phi ptr [ %5, %.lr.ph ], [ %.sroa.8.023, %23 ]
  %.sroa.8.023.in = getelementptr inbounds nuw i8, ptr %.sroa.0.022, i64 8
  %.sroa.8.023 = load ptr, ptr %.sroa.8.023.in, align 8
  %9 = icmp eq ptr %.sroa.0.022, %6
  br i1 %9, label %10, label %15

10:                                               ; preds = %8
  %11 = getelementptr inbounds nuw i8, ptr %.sroa.0.022, i64 32
  store i32 0, ptr %11, align 8
  %12 = getelementptr inbounds nuw i8, ptr %.sroa.0.022, i64 36
  store i32 0, ptr %12, align 4
  %13 = getelementptr inbounds nuw i8, ptr %.sroa.0.022, i64 56
  %14 = getelementptr inbounds nuw i8, ptr %.sroa.0.022, i64 40
  store ptr %13, ptr %14, align 8
  br label %23

15:                                               ; preds = %8
  %16 = load ptr, ptr %.sroa.0.022, align 8
  %17 = getelementptr inbounds nuw i8, ptr %16, i64 8
  store ptr %.sroa.8.023, ptr %17, align 8
  %18 = load ptr, ptr %.sroa.0.022, align 8
  store ptr %18, ptr %.sroa.8.023, align 8
  %19 = getelementptr inbounds nuw i8, ptr %.sroa.0.022, i64 24
  %20 = load i64, ptr %19, align 8
  %21 = load i64, ptr %7, align 8
  %22 = sub i64 %21, %20
  store i64 %22, ptr %7, align 8
  tail call void @free(ptr noundef nonnull %.sroa.0.022) #15
  br label %23

23:                                               ; preds = %15, %10
  %.not18 = icmp eq ptr %.sroa.8.023, %3
  br i1 %.not18, label %._crit_edge, label %8, !llvm.loop !6

._crit_edge:                                      ; preds = %23, %1
  %24 = getelementptr inbounds nuw i8, ptr %0, i64 128
  %25 = getelementptr inbounds nuw i8, ptr %0, i64 96
  store ptr %24, ptr %25, align 8
  %26 = getelementptr inbounds nuw i8, ptr %0, i64 80
  %27 = load i32, ptr %26, align 8
  %28 = getelementptr inbounds nuw i8, ptr %0, i64 88
  store i32 %27, ptr %28, align 8
  ret void
}